target datalayout = "e-m:e-p270:32:32-p271:32:32-p272:64:64-i64:64-i128:128-f80:128-n8:16:32:64-S128"
target triple = "x86_64-pc-linux-gnu"

%struct.AVFilterContext = type { ptr, ptr, ptr, ptr, ptr, i32, ptr, ptr, i32, ptr, ptr, i32, i32, ptr, ptr, ptr, ptr, i32, ptr, i32, i32 }
%struct.ColorConstancyContext = type { ptr, i32, i32, double, i32, [4 x i32], [4 x i32], i32, [3 x ptr], [3 x double] }

; Function Attrs: cold nounwind optsize uwtable
define internal void @uninit(ptr noundef %0) #0 {
  %2 = alloca ptr, align 8
  %3 = alloca ptr, align 8
  %4 = alloca i32, align 4
  %5 = alloca i32, align 4
  store ptr %0, ptr %2, align 8, !tbaa !4
  call void @llvm.lifetime.start.p0(i64 8, ptr %3) #9
  %6 = load ptr, ptr %2, align 8, !tbaa !4
  %7 = getelementptr inbounds nuw %struct.AVFilterContext, ptr %6, i32 0, i32 9
  %8 = load ptr, ptr %7, align 8, !tbaa !9
  store ptr %8, ptr %3, align 8, !tbaa !22
  call void @llvm.lifetime.start.p0(i64 4, ptr %4) #9
  %9 = load ptr, ptr %3, align 8, !tbaa !22
  %10 = getelementptr inbounds nuw %struct.ColorConstancyContext, ptr %9, i32 0, i32 1
  %11 = load i32, ptr %10, align 8, !tbaa !24
  store i32 %11, ptr %4, align 4, !tbaa !27
  call void @llvm.lifetime.start.p0(i64 4, ptr %5) #9
  store i32 0, ptr %5, align 4, !tbaa !27
  br label %12

12:                                               ; preds = %22, %1
  %13 = load i32, ptr %5, align 4, !tbaa !27
  %14 = load i32, ptr %4, align 4, !tbaa !27
  %15 = icmp sle i32 %13, %14
  br i1 %15, label %16, label %25

16:                                               ; preds = %12
  %17 = load ptr, ptr %3, align 8, !tbaa !22
  %18 = getelementptr inbounds nuw %struct.ColorConstancyContext, ptr %17, i32 0, i32 8
  %19 = load i32, ptr %5, align 4, !tbaa !27
  %20 = sext i32 %19 to i64
  %21 = getelementptr inbounds [3 x ptr], ptr %18, i64 0, i64 %20
  call void @av_freep(ptr noundef %21)
  br label %22

22:                                               ; preds = %16
  %23 = load i32, ptr %5, align 4, !tbaa !27
  %24 = add nsw i32 %23, 1
  store i32 %24, ptr %5, align 4, !tbaa !27
  br label %12, !llvm.loop !28

25:                                               ; preds = %12
  call void @llvm.lifetime.end.p0(i64 4, ptr %5) #9
  call void @llvm.lifetime.end.p0(i64 4, ptr %4) #9
  call void @llvm.lifetime.end.p0(i64 8, ptr %3) #9
  ret void
}